target datalayout = "e-m:e-p270:32:32-p271:32:32-p272:64:64-i64:64-i128:128-f80:128-n8:16:32:64-S128"
target triple = "x86_64-pc-linux-gnu"

%"class.cmMakefileProfilingData::RAII" = type { ptr }

; Function Attrs: mustprogress nounwind uwtable
define dso_local noundef nonnull align 8 dereferenceable(8) ptr @_ZN23cmMakefileProfilingData4RAIIaSEOS0_(ptr noundef nonnull align 8 dereferenceable(8) %0, ptr noundef nonnull align 8 dereferenceable(8) %1) #5 align 2 personality ptr @__gxx_personality_v0 {
  %3 = alloca ptr, align 8
  %4 = alloca ptr, align 8
  store ptr %0, ptr %3, align 8, !tbaa !58
  store ptr %1, ptr %4, align 8, !tbaa !58
  %5 = load ptr, ptr %3, align 8
  %6 = getelementptr inbounds nuw %"class.cmMakefileProfilingData::RAII", ptr %5, i32 0, i32 0
  %7 = load ptr, ptr %6, align 8, !tbaa !60
  %8 = icmp ne ptr %7, null
  br i1 %8, label %9, label %13

9:                                                ; preds = %2
  %10 = getelementptr inbounds nuw %"class.cmMakefileProfilingData::RAII", ptr %5, i32 0, i32 0
  %11 = load ptr, ptr %10, align 8, !tbaa !60
  invoke void @_ZN23cmMakefileProfilingData9StopEntryEv(ptr noundef nonnull align 8 dereferenceable(520) %11)
          to label %12 unwind label %20

12:                                               ; preds = %9
  br label %13

13:                                               ; preds = %12, %2
  %14 = load ptr, ptr %4, align 8, !tbaa !58
  %15 = getelementptr inbounds nuw %"class.cmMakefileProfilingData::RAII", ptr %14, i32 0, i32 0
  %16 = load ptr, ptr %15, align 8, !tbaa !60
  %17 = getelementptr inbounds nuw %"class.cmMakefileProfilingData::RAII", ptr %5, i32 0, i32 0
  store ptr %16, ptr %17, align 8, !tbaa !60
  %18 = load ptr, ptr %4, align 8, !tbaa !58
  %19 = getelementptr inbounds nuw %"class.cmMakefileProfilingData::RAII", ptr %18, i32 0, i32 0
  store ptr null, ptr %19, align 8, !tbaa !60
  ret ptr %5

20:                                               ; preds = %9
  %21 = landingpad { ptr, i32 }
          catch ptr null
  %22 = extractvalue { ptr, i32 } %21, 0
  call void @__clang_call_terminate(ptr %22) #17
  unreachable
}