; Function Attrs: mustprogress nounwind uwtable
define dso_local noundef nonnull align 8 dereferenceable(8) ptr @_ZN23cmMakefileProfilingData4RAIIaSEOS0_(ptr noundef nonnull returned align 8 dereferenceable(8) %0, ptr noundef nonnull align 8 captures(none) dereferenceable(8) %1) local_unnamed_addr #7 align 2 personality ptr @__gxx_personality_v0 {
  %3 = load ptr, ptr %0, align 8, !tbaa !54
  %.not = icmp eq ptr %3, null
  br i1 %.not, label %5, label %4

4:                                                ; preds = %2
  invoke void @_ZN23cmMakefileProfilingData9StopEntryEv(ptr noundef nonnull align 8 dereferenceable(520) %3)
          to label %5 unwind label %7

5:                                                ; preds = %4, %2
  %6 = load ptr, ptr %1, align 8, !tbaa !54
  store ptr %6, ptr %0, align 8, !tbaa !54
  store ptr null, ptr %1, align 8, !tbaa !54
  ret ptr %0

7:                                                ; preds = %4
  %8 = landingpad { ptr, i32 }
          catch ptr null
  %9 = extractvalue { ptr, i32 } %8, 0
  tail call void @__clang_call_terminate(ptr %9) #21
  unreachable
}